; Function Attrs: nounwind uwtable
define range(i32 -2147483648, 1) i32 @avio_open(ptr noundef captures(none) initializes((0, 8)) %0, ptr noundef %1, i32 noundef %2) local_unnamed_addr #3 {
  %4 = alloca ptr, align 8
  %5 = alloca ptr, align 8
  call void @llvm.lifetime.start.p0(i64 8, ptr nonnull %5) #12
  store ptr null, ptr %0, align 8, !tbaa !46
  %6 = call i32 @ffurl_open_whitelist(ptr noundef nonnull %5, ptr noundef %1, i32 noundef %2, ptr noundef readonly null, ptr noundef null, ptr noundef null, ptr noundef null, ptr noundef null)
  %7 = icmp slt i32 %6, 0
  br i1 %7, label %avio_open2.exit, label %8

8:                                                ; preds = %3
  %9 = load ptr, ptr %5, align 8, !tbaa !41
  %10 = call i32 @ffio_fdopen(ptr noundef nonnull %0, ptr noundef %9)
  %11 = icmp slt i32 %10, 0
  br i1 %11, label %12, label %avio_open2.exit

12:                                               ; preds = %8
  %13 = load ptr, ptr %5, align 8, !tbaa !41
  call void @llvm.lifetime.start.p0(i64 8, ptr nonnull %4)
  store ptr %13, ptr %4, align 8, !tbaa !41
  %14 = call i32 @ffurl_closep(ptr noundef nonnull %4)
  call void @llvm.lifetime.end.p0(i64 8, ptr nonnull %4)
  br label %avio_open2.exit

avio_open2.exit:                                  ; preds = %3, %8, %12
  %.0.i.i = phi i32 [ %10, %12 ], [ %6, %3 ], [ 0, %8 ]
  call void @llvm.lifetime.end.p0(i64 8, ptr nonnull %5) #12
  ret i32 %.0.i.i
}